; Function Attrs: mustprogress nounwind uwtable
define hidden noundef ptr @_ZN7TypePtr4makeEN4Type5TYPESENS_3PTREiPKS_i(i32 noundef %0, i32 noundef %1, i32 noundef %2, ptr noundef %3, i32 noundef %4) local_unnamed_addr #0 align 2 {
  %6 = tail call align 8 ptr @llvm.threadlocal.address.p0(ptr align 8 @_ZN6Thread12_thr_currentE)
  %7 = load ptr, ptr %6, align 8
  %8 = getelementptr inbounds i8, ptr %7, i64 1808
  %9 = load ptr, ptr %8, align 8
  %10 = getelementptr inbounds i8, ptr %9, i64 128
  %11 = load ptr, ptr %10, align 8
  %12 = getelementptr inbounds i8, ptr %11, i64 888
  store i64 48, ptr %12, align 8
  %13 = getelementptr inbounds i8, ptr %11, i64 848
  %14 = load ptr, ptr %13, align 8
  %15 = getelementptr inbounds i8, ptr %14, i64 40
  %16 = load ptr, ptr %15, align 8
  %17 = getelementptr inbounds i8, ptr %14, i64 32
  %18 = load ptr, ptr %17, align 8
  %19 = ptrtoint ptr %16 to i64
  %20 = ptrtoint ptr %18 to i64
  %21 = sub i64 %19, %20
  %.not.i.i.i = icmp ult i64 %21, 48
  br i1 %.not.i.i.i, label %24, label %22

22:                                               ; preds = %5
  %23 = getelementptr inbounds i8, ptr %18, i64 48
  store ptr %23, ptr %17, align 8
  br label %_ZN4TypenwEm.exit

24:                                               ; preds = %5
  %25 = tail call noundef ptr @_ZN5Arena4growEmN17AllocFailStrategy13AllocFailEnumE(ptr noundef nonnull align 8 dereferenceable(48) %14, i64 noundef 48, i32 noundef 0) #17
  br label %_ZN4TypenwEm.exit

_ZN4TypenwEm.exit:                                ; preds = %22, %24
  %.0.i.i.i = phi ptr [ %18, %22 ], [ %25, %24 ]
  %26 = icmp ne ptr %.0.i.i.i, null
  tail call void @llvm.assume(i1 %26)
  %27 = getelementptr inbounds i8, ptr %.0.i.i.i, i64 8
  store ptr null, ptr %27, align 8
  %28 = getelementptr inbounds i8, ptr %.0.i.i.i, i64 16
  store i32 %0, ptr %28, align 8
  store ptr getelementptr inbounds inrange(-16, 224) (i8, ptr @_ZTV7TypePtr, i64 16), ptr %.0.i.i.i, align 8
  %29 = getelementptr inbounds i8, ptr %.0.i.i.i, i64 24
  store ptr %3, ptr %29, align 8
  %30 = getelementptr inbounds i8, ptr %.0.i.i.i, i64 32
  store i32 %4, ptr %30, align 8
  %31 = getelementptr inbounds i8, ptr %.0.i.i.i, i64 36
  store i32 %2, ptr %31, align 4
  %32 = getelementptr inbounds i8, ptr %.0.i.i.i, i64 40
  store i32 %1, ptr %32, align 8
  %33 = tail call noundef ptr @_ZN4Type8hashconsEv(ptr noundef nonnull align 8 dereferenceable(20) %.0.i.i.i)
  ret ptr %33
}